target datalayout = "e-m:e-p270:32:32-p271:32:32-p272:64:64-i64:64-i128:128-f80:128-n8:16:32:64-S128"
target triple = "x86_64-unknown-linux-gnu"

%"class.std::__cxx11::basic_string" = type { %"struct.std::__cxx11::basic_string<char>::_Alloc_hider", i64, %union.anon }
%"struct.std::__cxx11::basic_string<char>::_Alloc_hider" = type { ptr }
%union.anon = type { i64, [8 x i8] }
%"class.YAML::detail::node_data" = type { i8, %"struct.YAML::Mark", i32, %"class.std::__cxx11::basic_string", i32, %"class.std::__cxx11::basic_string", %"class.std::vector", i64, %"class.std::vector.3", %"class.std::__cxx11::list" }
%"struct.YAML::Mark" = type { i32, i32, i32 }
%"class.std::vector" = type { %"struct.std::_Vector_base" }
%"struct.std::_Vector_base" = type { %"struct.std::_Vector_base<YAML::detail::node *, std::allocator<YAML::detail::node *>>::_Vector_impl" }
%"struct.std::_Vector_base<YAML::detail::node *, std::allocator<YAML::detail::node *>>::_Vector_impl" = type { %"struct.std::_Vector_base<YAML::detail::node *, std::allocator<YAML::detail::node *>>::_Vector_impl_data" }
%"struct.std::_Vector_base<YAML::detail::node *, std::allocator<YAML::detail::node *>>::_Vector_impl_data" = type { ptr, ptr, ptr }
%"class.std::vector.3" = type { %"struct.std::_Vector_base.4" }
%"struct.std::_Vector_base.4" = type { %"struct.std::_Vector_base<std::pair<YAML::detail::node *, YAML::detail::node *>, std::allocator<std::pair<YAML::detail::node *, YAML::detail::node *>>>::_Vector_impl" }
%"struct.std::_Vector_base<std::pair<YAML::detail::node *, YAML::detail::node *>, std::allocator<std::pair<YAML::detail::node *, YAML::detail::node *>>>::_Vector_impl" = type { %"struct.std::_Vector_base<std::pair<YAML::detail::node *, YAML::detail::node *>, std::allocator<std::pair<YAML::detail::node *, YAML::detail::node *>>>::_Vector_impl_data" }
%"struct.std::_Vector_base<std::pair<YAML::detail::node *, YAML::detail::node *>, std::allocator<std::pair<YAML::detail::node *, YAML::detail::node *>>>::_Vector_impl_data" = type { ptr, ptr, ptr }
%"class.std::__cxx11::list" = type { %"class.std::__cxx11::_List_base" }
%"class.std::__cxx11::_List_base" = type { %"struct.std::__cxx11::_List_base<std::pair<YAML::detail::node *, YAML::detail::node *>, std::allocator<std::pair<YAML::detail::node *, YAML::detail::node *>>>::_List_impl" }
%"struct.std::__cxx11::_List_base<std::pair<YAML::detail::node *, YAML::detail::node *>, std::allocator<std::pair<YAML::detail::node *, YAML::detail::node *>>>::_List_impl" = type { %"struct.std::__detail::_List_node_header" }
%"struct.std::__detail::_List_node_header" = type { %"struct.std::__detail::_List_node_base", i64 }
%"struct.std::__detail::_List_node_base" = type { ptr, ptr }
%"struct.std::pair" = type { ptr, ptr }
%"class.YAML::detail::node" = type { %"class.std::shared_ptr", %"class.std::set", i64 }
%"class.std::shared_ptr" = type { %"class.std::__shared_ptr" }
%"class.std::__shared_ptr" = type { ptr, %"class.std::__shared_count" }
%"class.std::__shared_count" = type { ptr }
%"class.std::set" = type { %"class.std::_Rb_tree" }
%"class.std::_Rb_tree" = type { %"struct.std::_Rb_tree<YAML::detail::node *, YAML::detail::node *, std::_Identity<YAML::detail::node *>, YAML::detail::node::less>::_Rb_tree_impl" }
%"struct.std::_Rb_tree<YAML::detail::node *, YAML::detail::node *, std::_Identity<YAML::detail::node *>, YAML::detail::node::less>::_Rb_tree_impl" = type { %"struct.std::_Rb_tree_key_compare", %"struct.std::_Rb_tree_header" }
%"struct.std::_Rb_tree_key_compare" = type { %"struct.YAML::detail::node::less" }
%"struct.YAML::detail::node::less" = type { i8 }
%"struct.std::_Rb_tree_header" = type { %"struct.std::_Rb_tree_node_base", i64 }
%"struct.std::_Rb_tree_node_base" = type { i32, ptr, ptr, ptr }
%"class.__gnu_cxx::__normal_iterator.14" = type { ptr }

; Function Attrs: mustprogress nounwind uwtable
define linkonce_odr noundef ptr @_ZNKSt12__shared_ptrIN4YAML6detail8node_refELN9__gnu_cxx12_Lock_policyE2EE3getEv(ptr noundef nonnull align 8 dereferenceable(16) %this) #0 comdat align 2 {
entry:
  %this.addr = alloca ptr, align 8
  store ptr %this, ptr %this.addr, align 8
  %this1 = load ptr, ptr %this.addr, align 8
  %_M_ptr = getelementptr inbounds %"class.std::__shared_ptr", ptr %this1, i32 0, i32 0
  %0 = load ptr, ptr %_M_ptr, align 8
  ret ptr %0
}

; Function Attrs: mustprogress nounwind uwtable
define linkonce_odr noundef zeroext i1 @_ZSteqIN4YAML6detail8node_refES2_EbRKSt10shared_ptrIT_ERKS3_IT0_E(ptr noundef nonnull align 8 dereferenceable(16) %__a, ptr noundef nonnull align 8 dereferenceable(16) %__b) #0 comdat {
entry:
  %__a.addr = alloca ptr, align 8
  %__b.addr = alloca ptr, align 8
  store ptr %__a, ptr %__a.addr, align 8
  store ptr %__b, ptr %__b.addr, align 8
  %0 = load ptr, ptr %__a.addr, align 8
  %call = call noundef ptr @_ZNKSt12__shared_ptrIN4YAML6detail8node_refELN9__gnu_cxx12_Lock_policyE2EE3getEv(ptr noundef nonnull align 8 dereferenceable(16) %0) #1
  %1 = load ptr, ptr %__b.addr, align 8
  %call1 = call noundef ptr @_ZNKSt12__shared_ptrIN4YAML6detail8node_refELN9__gnu_cxx12_Lock_policyE2EE3getEv(ptr noundef nonnull align 8 dereferenceable(16) %1) #1
  %cmp = icmp eq ptr %call, %call1
  ret i1 %cmp
}

; Function Attrs: mustprogress nounwind uwtable
define linkonce_odr noundef nonnull align 8 dereferenceable(8) ptr @_ZNK9__gnu_cxx17__normal_iteratorIPKSt4pairIPN4YAML6detail4nodeES5_ESt6vectorIS6_SaIS6_EEE4baseEv(ptr noundef nonnull align 8 dereferenceable(8) %this) #0 comdat align 2 {
entry:
  %this.addr = alloca ptr, align 8
  store ptr %this, ptr %this.addr, align 8
  %this1 = load ptr, ptr %this.addr, align 8
  %_M_current = getelementptr inbounds %"class.__gnu_cxx::__normal_iterator.14", ptr %this1, i32 0, i32 0
  ret ptr %_M_current
}

; Function Attrs: mustprogress nounwind uwtable
define linkonce_odr void @_ZN9__gnu_cxx17__normal_iteratorIPKSt4pairIPN4YAML6detail4nodeES5_ESt6vectorIS6_SaIS6_EEEC2ERKS8_(ptr noundef nonnull align 8 dereferenceable(8) %this, ptr noundef nonnull align 8 dereferenceable(8) %__i) unnamed_addr #0 comdat align 2 {
entry:
  %this.addr = alloca ptr, align 8
  %__i.addr = alloca ptr, align 8
  store ptr %this, ptr %this.addr, align 8
  store ptr %__i, ptr %__i.addr, align 8
  %this1 = load ptr, ptr %this.addr, align 8
  %_M_current = getelementptr inbounds %"class.__gnu_cxx::__normal_iterator.14", ptr %this1, i32 0, i32 0
  %0 = load ptr, ptr %__i.addr, align 8
  %1 = load ptr, ptr %0, align 8
  store ptr %1, ptr %_M_current, align 8
  ret void
}

; Function Attrs: mustprogress nounwind uwtable
define linkonce_odr noundef nonnull align 8 dereferenceable(8) ptr @_ZN9__gnu_cxx17__normal_iteratorIPKSt4pairIPN4YAML6detail4nodeES5_ESt6vectorIS6_SaIS6_EEEppEv(ptr noundef nonnull align 8 dereferenceable(8) %this) #0 comdat align 2 {
entry:
  %this.addr = alloca ptr, align 8
  store ptr %this, ptr %this.addr, align 8
  %this1 = load ptr, ptr %this.addr, align 8
  %_M_current = getelementptr inbounds %"class.__gnu_cxx::__normal_iterator.14", ptr %this1, i32 0, i32 0
  %0 = load ptr, ptr %_M_current, align 8
  %incdec.ptr = getelementptr inbounds %"struct.std::pair", ptr %0, i32 1
  store ptr %incdec.ptr, ptr %_M_current, align 8
  ret ptr %this1
}

; Function Attrs: mustprogress nounwind uwtable
define linkonce_odr noundef zeroext i1 @_ZNK4YAML6detail4node2isERKS1_(ptr noundef nonnull align 8 dereferenceable(72) %this, ptr noundef nonnull align 8 dereferenceable(72) %rhs) #0 comdat align 2 {
entry:
  %this.addr = alloca ptr, align 8
  %rhs.addr = alloca ptr, align 8
  store ptr %this, ptr %this.addr, align 8
  store ptr %rhs, ptr %rhs.addr, align 8
  %this1 = load ptr, ptr %this.addr, align 8
  %m_pRef = getelementptr inbounds %"class.YAML::detail::node", ptr %this1, i32 0, i32 0
  %0 = load ptr, ptr %rhs.addr, align 8
  %m_pRef2 = getelementptr inbounds %"class.YAML::detail::node", ptr %0, i32 0, i32 0
  %call = call noundef zeroext i1 @_ZSteqIN4YAML6detail8node_refES2_EbRKSt10shared_ptrIT_ERKS3_IT0_E(ptr noundef nonnull align 8 dereferenceable(16) %m_pRef, ptr noundef nonnull align 8 dereferenceable(16) %m_pRef2) #1
  ret i1 %call
}

; Function Attrs: mustprogress nounwind uwtable
define linkonce_odr noundef nonnull align 8 dereferenceable(16) ptr @_ZNK9__gnu_cxx17__normal_iteratorIPKSt4pairIPN4YAML6detail4nodeES5_ESt6vectorIS6_SaIS6_EEEdeEv(ptr noundef nonnull align 8 dereferenceable(8) %this) #0 comdat align 2 {
entry:
  %this.addr = alloca ptr, align 8
  store ptr %this, ptr %this.addr, align 8
  %this1 = load ptr, ptr %this.addr, align 8
  %_M_current = getelementptr inbounds %"class.__gnu_cxx::__normal_iterator.14", ptr %this1, i32 0, i32 0
  %0 = load ptr, ptr %_M_current, align 8
  ret ptr %0
}

; Function Attrs: mustprogress nounwind uwtable
define linkonce_odr noundef zeroext i1 @_ZN9__gnu_cxxneIPKSt4pairIPN4YAML6detail4nodeES5_ESt6vectorIS6_SaIS6_EEEEbRKNS_17__normal_iteratorIT_T0_EESH_(ptr noundef nonnull align 8 dereferenceable(8) %__lhs, ptr noundef nonnull align 8 dereferenceable(8) %__rhs) #0 comdat {
entry:
  %__lhs.addr = alloca ptr, align 8
  %__rhs.addr = alloca ptr, align 8
  store ptr %__lhs, ptr %__lhs.addr, align 8
  store ptr %__rhs, ptr %__rhs.addr, align 8
  %0 = load ptr, ptr %__lhs.addr, align 8
  %call = call noundef nonnull align 8 dereferenceable(8) ptr @_ZNK9__gnu_cxx17__normal_iteratorIPKSt4pairIPN4YAML6detail4nodeES5_ESt6vectorIS6_SaIS6_EEE4baseEv(ptr noundef nonnull align 8 dereferenceable(8) %0) #1
  %1 = load ptr, ptr %call, align 8
  %2 = load ptr, ptr %__rhs.addr, align 8
  %call1 = call noundef nonnull align 8 dereferenceable(8) ptr @_ZNK9__gnu_cxx17__normal_iteratorIPKSt4pairIPN4YAML6detail4nodeES5_ESt6vectorIS6_SaIS6_EEE4baseEv(ptr noundef nonnull align 8 dereferenceable(8) %2) #1
  %3 = load ptr, ptr %call1, align 8
  %cmp = icmp ne ptr %1, %3
  ret i1 %cmp
}

; Function Attrs: mustprogress nounwind uwtable
define linkonce_odr ptr @_ZNKSt6vectorISt4pairIPN4YAML6detail4nodeES4_ESaIS5_EE3endEv(ptr noundef nonnull align 8 dereferenceable(24) %this) #0 comdat align 2 {
entry:
  %retval = alloca %"class.__gnu_cxx::__normal_iterator.14", align 8
  %this.addr = alloca ptr, align 8
  store ptr %this, ptr %this.addr, align 8
  %this1 = load ptr, ptr %this.addr, align 8
  %_M_impl = getelementptr inbounds %"struct.std::_Vector_base.4", ptr %this1, i32 0, i32 0
  %_M_finish = getelementptr inbounds %"struct.std::_Vector_base<std::pair<YAML::detail::node *, YAML::detail::node *>, std::allocator<std::pair<YAML::detail::node *, YAML::detail::node *>>>::_Vector_impl_data", ptr %_M_impl, i32 0, i32 1
  call void @_ZN9__gnu_cxx17__normal_iteratorIPKSt4pairIPN4YAML6detail4nodeES5_ESt6vectorIS6_SaIS6_EEEC2ERKS8_(ptr noundef nonnull align 8 dereferenceable(8) %retval, ptr noundef nonnull align 8 dereferenceable(8) %_M_finish) #1
  %coerce.dive = getelementptr inbounds %"class.__gnu_cxx::__normal_iterator.14", ptr %retval, i32 0, i32 0
  %0 = load ptr, ptr %coerce.dive, align 8
  ret ptr %0
}

; Function Attrs: mustprogress nounwind uwtable
define linkonce_odr ptr @_ZNKSt6vectorISt4pairIPN4YAML6detail4nodeES4_ESaIS5_EE5beginEv(ptr noundef nonnull align 8 dereferenceable(24) %this) #0 comdat align 2 {
entry:
  %retval = alloca %"class.__gnu_cxx::__normal_iterator.14", align 8
  %this.addr = alloca ptr, align 8
  store ptr %this, ptr %this.addr, align 8
  %this1 = load ptr, ptr %this.addr, align 8
  %_M_impl = getelementptr inbounds %"struct.std::_Vector_base.4", ptr %this1, i32 0, i32 0
  %_M_start = getelementptr inbounds %"struct.std::_Vector_base<std::pair<YAML::detail::node *, YAML::detail::node *>, std::allocator<std::pair<YAML::detail::node *, YAML::detail::node *>>>::_Vector_impl_data", ptr %_M_impl, i32 0, i32 0
  call void @_ZN9__gnu_cxx17__normal_iteratorIPKSt4pairIPN4YAML6detail4nodeES5_ESt6vectorIS6_SaIS6_EEEC2ERKS8_(ptr noundef nonnull align 8 dereferenceable(8) %retval, ptr noundef nonnull align 8 dereferenceable(8) %_M_start) #1
  %coerce.dive = getelementptr inbounds %"class.__gnu_cxx::__normal_iterator.14", ptr %retval, i32 0, i32 0
  %0 = load ptr, ptr %coerce.dive, align 8
  ret ptr %0
}

; Function Attrs: mustprogress uwtable
define noundef ptr @_ZNK4YAML6detail9node_data3getERNS0_4nodeERKSt10shared_ptrINS0_13memory_holderEE(ptr noundef nonnull align 8 dereferenceable(176) %this, ptr noundef nonnull align 8 dereferenceable(72) %key, ptr noundef nonnull align 8 dereferenceable(16) %0) #3 align 2 {
entry:
  %retval = alloca ptr, align 8
  %this.addr = alloca ptr, align 8
  %key.addr = alloca ptr, align 8
  %.addr = alloca ptr, align 8
  %__range2 = alloca ptr, align 8
  %__begin2 = alloca %"class.__gnu_cxx::__normal_iterator.14", align 8
  %__end2 = alloca %"class.__gnu_cxx::__normal_iterator.14", align 8
  %it = alloca ptr, align 8
  store ptr %this, ptr %this.addr, align 8
  store ptr %key, ptr %key.addr, align 8
  store ptr %0, ptr %.addr, align 8
  %this1 = load ptr, ptr %this.addr, align 8
  %m_type = getelementptr inbounds %"class.YAML::detail::node_data", ptr %this1, i32 0, i32 2
  %1 = load i32, ptr %m_type, align 8
  %cmp = icmp ne i32 %1, 4
  br i1 %cmp, label %if.then, label %if.end

if.then:                                          ; preds = %entry
  store ptr null, ptr %retval, align 8
  br label %return

if.end:                                           ; preds = %entry
  %m_map = getelementptr inbounds %"class.YAML::detail::node_data", ptr %this1, i32 0, i32 8
  store ptr %m_map, ptr %__range2, align 8
  %2 = load ptr, ptr %__range2, align 8
  %call = call ptr @_ZNKSt6vectorISt4pairIPN4YAML6detail4nodeES4_ESaIS5_EE5beginEv(ptr noundef nonnull align 8 dereferenceable(24) %2) #1
  %coerce.dive = getelementptr inbounds %"class.__gnu_cxx::__normal_iterator.14", ptr %__begin2, i32 0, i32 0
  store ptr %call, ptr %coerce.dive, align 8
  %3 = load ptr, ptr %__range2, align 8
  %call2 = call ptr @_ZNKSt6vectorISt4pairIPN4YAML6detail4nodeES4_ESaIS5_EE3endEv(ptr noundef nonnull align 8 dereferenceable(24) %3) #1
  %coerce.dive3 = getelementptr inbounds %"class.__gnu_cxx::__normal_iterator.14", ptr %__end2, i32 0, i32 0
  store ptr %call2, ptr %coerce.dive3, align 8
  br label %for.cond

for.cond:                                         ; preds = %for.inc, %if.end
  %call4 = call noundef zeroext i1 @_ZN9__gnu_cxxneIPKSt4pairIPN4YAML6detail4nodeES5_ESt6vectorIS6_SaIS6_EEEEbRKNS_17__normal_iteratorIT_T0_EESH_(ptr noundef nonnull align 8 dereferenceable(8) %__begin2, ptr noundef nonnull align 8 dereferenceable(8) %__end2) #1
  br i1 %call4, label %for.body, label %for.end

for.body:                                         ; preds = %for.cond
  %call5 = call noundef nonnull align 8 dereferenceable(16) ptr @_ZNK9__gnu_cxx17__normal_iteratorIPKSt4pairIPN4YAML6detail4nodeES5_ESt6vectorIS6_SaIS6_EEEdeEv(ptr noundef nonnull align 8 dereferenceable(8) %__begin2) #1
  store ptr %call5, ptr %it, align 8
  %4 = load ptr, ptr %it, align 8
  %first = getelementptr inbounds %"struct.std::pair", ptr %4, i32 0, i32 0
  %5 = load ptr, ptr %first, align 8
  %6 = load ptr, ptr %key.addr, align 8
  %call6 = call noundef zeroext i1 @_ZNK4YAML6detail4node2isERKS1_(ptr noundef nonnull align 8 dereferenceable(72) %5, ptr noundef nonnull align 8 dereferenceable(72) %6)
  br i1 %call6, label %if.then7, label %if.end8

if.then7:                                         ; preds = %for.body
  %7 = load ptr, ptr %it, align 8
  %second = getelementptr inbounds %"struct.std::pair", ptr %7, i32 0, i32 1
  %8 = load ptr, ptr %second, align 8
  store ptr %8, ptr %retval, align 8
  br label %return

if.end8:                                          ; preds = %for.body
  br label %for.inc

for.inc:                                          ; preds = %if.end8
  %call9 = call noundef nonnull align 8 dereferenceable(8) ptr @_ZN9__gnu_cxx17__normal_iteratorIPKSt4pairIPN4YAML6detail4nodeES5_ESt6vectorIS6_SaIS6_EEEppEv(ptr noundef nonnull align 8 dereferenceable(8) %__begin2) #1
  br label %for.cond

for.end:                                          ; preds = %for.cond
  store ptr null, ptr %retval, align 8
  br label %return

return:                                           ; preds = %for.end, %if.then7, %if.then
  %9 = load ptr, ptr %retval, align 8
  ret ptr %9
}