; Function Attrs: mustprogress nofree norecurse nosync nounwind willreturn memory(read, inaccessiblemem: none) uwtable
define noundef ptr @_ZNK4YAML6detail9node_data3getERNS0_4nodeERKSt10shared_ptrINS0_13memory_holderEE(ptr nocapture noundef nonnull readonly align 8 dereferenceable(176) %this, ptr nocapture noundef nonnull readonly align 8 dereferenceable(72) %key, ptr nocapture noundef nonnull readnone align 8 dereferenceable(16) %0) local_unnamed_addr #10 align 2 {
entry:
  %m_type = getelementptr inbounds i8, ptr %this, i64 16
  %1 = load i32, ptr %m_type, align 8
  %cmp.not = icmp eq i32 %1, 4
  br i1 %cmp.not, label %if.end, label %return

if.end:                                           ; preds = %entry
  %m_map = getelementptr inbounds i8, ptr %this, i64 128
  %2 = load ptr, ptr %m_map, align 8
  %_M_finish.i = getelementptr inbounds i8, ptr %this, i64 136
  %3 = load ptr, ptr %_M_finish.i, align 8
  %cmp.i.not6 = icmp eq ptr %2, %3
  br i1 %cmp.i.not6, label %return, label %for.body.lr.ph

for.body.lr.ph:                                   ; preds = %if.end
  %4 = load ptr, ptr %key, align 8
  br label %for.body

for.body:                                         ; preds = %for.body.lr.ph, %for.inc
  %__begin2.sroa.0.07 = phi ptr [ %2, %for.body.lr.ph ], [ %incdec.ptr.i, %for.inc ]
  %5 = load ptr, ptr %__begin2.sroa.0.07, align 8
  %6 = load ptr, ptr %5, align 8
  %cmp.i.i = icmp eq ptr %6, %4
  br i1 %cmp.i.i, label %if.then7, label %for.inc

if.then7:                                         ; preds = %for.body
  %second = getelementptr inbounds i8, ptr %__begin2.sroa.0.07, i64 8
  %7 = load ptr, ptr %second, align 8
  br label %return

for.inc:                                          ; preds = %for.body
  %incdec.ptr.i = getelementptr inbounds i8, ptr %__begin2.sroa.0.07, i64 16
  %cmp.i.not = icmp eq ptr %incdec.ptr.i, %3
  br i1 %cmp.i.not, label %return, label %for.body

return:                                           ; preds = %for.inc, %if.end, %entry, %if.then7
  %retval.0 = phi ptr [ %7, %if.then7 ], [ null, %entry ], [ null, %if.end ], [ null, %for.inc ]
  ret ptr %retval.0
}